target datalayout = "e-m:e-p270:32:32-p271:32:32-p272:64:64-i64:64-i128:128-f80:128-n8:16:32:64-S128"
target triple = "x86_64-pc-linux-gnu"

%struct.pmix_list_t = type { %struct.pmix_object_t, %struct.pmix_list_item_t, i64 }
%struct.pmix_object_t = type { %union.pthread_mutex_t, ptr, i32, %struct.pmix_tma }
%union.pthread_mutex_t = type { %struct.__pthread_mutex_s }
%struct.__pthread_mutex_s = type { i32, i32, i32, i32, i32, i16, i16, %struct.__pthread_internal_list }
%struct.__pthread_internal_list = type { ptr, ptr }
%struct.pmix_tma = type { ptr, ptr, ptr, ptr, ptr, ptr, ptr, ptr }
%struct.pmix_list_item_t = type { %struct.pmix_object_t, ptr, ptr, i32 }
%struct.pmix_class_t = type { ptr, ptr, ptr, ptr, i32, i32, ptr, ptr, i64 }
%struct.pmix_gds_hash_component_t = type { %struct.pmix_mca_base_component_2_1_0_t, %struct.pmix_list_t, %struct.pmix_list_t }
%struct.pmix_mca_base_component_2_1_0_t = type { i32, i32, i32, [16 x i8], i32, i32, i32, [32 x i8], i32, i32, i32, [64 x i8], i32, i32, i32, ptr, ptr, ptr, ptr, [32 x i8] }
%struct.pmix_job_t = type { %struct.pmix_list_item_t, ptr, ptr, %struct.pmix_hash_table_t, %struct.pmix_hash_table_t, %struct.pmix_hash_table_t, i8, %struct.pmix_list_t, %struct.pmix_list_t, %struct.pmix_list_t, ptr }
%struct.pmix_hash_table_t = type { %struct.pmix_object_t, ptr, ptr, i64, i64, i64, i32, i32, i32, i32, ptr }

@pmix_mca_gds_hash_component = external global %struct.pmix_gds_hash_component_t, align 8
@.str.13 = private unnamed_addr constant [21 x i8] c"pthread_mutex_lock()\00", align 1

; Function Attrs: inlinehint nounwind uwtable
define internal void @pmix_tma_free(ptr noundef %0, ptr noundef %1) #4 {
  %3 = alloca ptr, align 8
  %4 = alloca ptr, align 8
  store ptr %0, ptr %3, align 8, !tbaa !189
  store ptr %1, ptr %4, align 8, !tbaa !38
  %5 = load ptr, ptr %3, align 8, !tbaa !189
  %6 = icmp ne ptr null, %5
  br i1 %6, label %7, label %13

7:                                                ; preds = %2
  %8 = load ptr, ptr %3, align 8, !tbaa !189
  %9 = getelementptr inbounds nuw %struct.pmix_tma, ptr %8, i32 0, i32 5
  %10 = load ptr, ptr %9, align 8, !tbaa !205
  %11 = load ptr, ptr %3, align 8, !tbaa !189
  %12 = load ptr, ptr %4, align 8, !tbaa !38
  call void %10(ptr noundef %11, ptr noundef %12)
  br label %15

13:                                               ; preds = %2
  %14 = load ptr, ptr %4, align 8, !tbaa !38
  call void @free(ptr noundef %14) #11
  br label %15

15:                                               ; preds = %13, %7
  ret void
}

; Function Attrs: inlinehint nounwind uwtable
define internal void @pmix_obj_run_destructors(ptr noundef %0) #4 {
  %2 = alloca ptr, align 8
  %3 = alloca ptr, align 8
  store ptr %0, ptr %2, align 8, !tbaa !22
  call void @llvm.lifetime.start.p0(i64 8, ptr %3) #11
  %4 = load ptr, ptr %2, align 8, !tbaa !22
  %5 = getelementptr inbounds nuw %struct.pmix_object_t, ptr %4, i32 0, i32 1
  %6 = load ptr, ptr %5, align 8, !tbaa !16
  %7 = getelementptr inbounds nuw %struct.pmix_class_t, ptr %6, i32 0, i32 7
  %8 = load ptr, ptr %7, align 8, !tbaa !203
  store ptr %8, ptr %3, align 8, !tbaa !38
  br label %9

9:                                                ; preds = %13, %1
  %10 = load ptr, ptr %3, align 8, !tbaa !38
  %11 = load ptr, ptr %10, align 8, !tbaa !38
  %12 = icmp ne ptr null, %11
  br i1 %12, label %13, label %19

13:                                               ; preds = %9
  %14 = load ptr, ptr %3, align 8, !tbaa !38
  %15 = load ptr, ptr %14, align 8, !tbaa !38
  %16 = load ptr, ptr %2, align 8, !tbaa !22
  call void %15(ptr noundef %16)
  %17 = load ptr, ptr %3, align 8, !tbaa !38
  %18 = getelementptr inbounds nuw ptr, ptr %17, i32 1
  store ptr %18, ptr %3, align 8, !tbaa !38
  br label %9, !llvm.loop !204

19:                                               ; preds = %9
  call void @llvm.lifetime.end.p0(i64 8, ptr %3) #11
  ret void
}

; Function Attrs: alwaysinline nounwind uwtable
define internal i32 @pmix_obj_update(ptr noundef %0, i32 noundef %1) #6 {
  %3 = alloca ptr, align 8
  %4 = alloca i32, align 4
  %5 = alloca i32, align 4
  store ptr %0, ptr %3, align 8, !tbaa !22
  store i32 %1, ptr %4, align 4, !tbaa !10
  call void @llvm.lifetime.start.p0(i64 4, ptr %5) #11
  %6 = load ptr, ptr %3, align 8, !tbaa !22
  %7 = getelementptr inbounds nuw %struct.pmix_object_t, ptr %6, i32 0, i32 0
  %8 = call i32 @pthread_mutex_lock(ptr noundef %7) #11
  store i32 %8, ptr %5, align 4, !tbaa !10
  %9 = load i32, ptr %5, align 4, !tbaa !10
  %10 = icmp eq i32 %9, 35
  br i1 %10, label %11, label %14

11:                                               ; preds = %2
  %12 = load i32, ptr %5, align 4, !tbaa !10
  %13 = call ptr @__errno_location() #14
  store i32 %12, ptr %13, align 4, !tbaa !10
  call void @perror(ptr noundef @.str.13)
  call void @abort() #15
  unreachable

14:                                               ; preds = %2
  %15 = load i32, ptr %4, align 4, !tbaa !10
  %16 = load ptr, ptr %3, align 8, !tbaa !22
  %17 = getelementptr inbounds nuw %struct.pmix_object_t, ptr %16, i32 0, i32 2
  %18 = load i32, ptr %17, align 8, !tbaa !19
  %19 = add nsw i32 %18, %15
  store i32 %19, ptr %17, align 8, !tbaa !19
  store i32 %19, ptr %5, align 4, !tbaa !10
  %20 = load ptr, ptr %3, align 8, !tbaa !22
  %21 = getelementptr inbounds nuw %struct.pmix_object_t, ptr %20, i32 0, i32 0
  %22 = call i32 @pthread_mutex_unlock(ptr noundef %21) #11
  %23 = load i32, ptr %5, align 4, !tbaa !10
  call void @llvm.lifetime.end.p0(i64 4, ptr %5) #11
  ret i32 %23
}

; Function Attrs: inlinehint nounwind uwtable
define internal ptr @pmix_list_remove_item(ptr noundef %0, ptr noundef %1) #4 {
  %3 = alloca ptr, align 8
  %4 = alloca ptr, align 8
  store ptr %0, ptr %3, align 8, !tbaa !179
  store ptr %1, ptr %4, align 8, !tbaa !20
  %5 = load ptr, ptr %4, align 8, !tbaa !20
  %6 = getelementptr inbounds nuw %struct.pmix_list_item_t, ptr %5, i32 0, i32 1
  %7 = load ptr, ptr %6, align 8, !tbaa !98
  %8 = load ptr, ptr %4, align 8, !tbaa !20
  %9 = getelementptr inbounds nuw %struct.pmix_list_item_t, ptr %8, i32 0, i32 2
  %10 = load ptr, ptr %9, align 8, !tbaa !202
  %11 = getelementptr inbounds nuw %struct.pmix_list_item_t, ptr %10, i32 0, i32 1
  store volatile ptr %7, ptr %11, align 8, !tbaa !98
  %12 = load ptr, ptr %4, align 8, !tbaa !20
  %13 = getelementptr inbounds nuw %struct.pmix_list_item_t, ptr %12, i32 0, i32 2
  %14 = load ptr, ptr %13, align 8, !tbaa !202
  %15 = load ptr, ptr %4, align 8, !tbaa !20
  %16 = getelementptr inbounds nuw %struct.pmix_list_item_t, ptr %15, i32 0, i32 1
  %17 = load ptr, ptr %16, align 8, !tbaa !98
  %18 = getelementptr inbounds nuw %struct.pmix_list_item_t, ptr %17, i32 0, i32 2
  store volatile ptr %14, ptr %18, align 8, !tbaa !202
  %19 = load ptr, ptr %3, align 8, !tbaa !179
  %20 = getelementptr inbounds nuw %struct.pmix_list_t, ptr %19, i32 0, i32 2
  %21 = load volatile i64, ptr %20, align 8, !tbaa !201
  %22 = add i64 %21, -1
  store volatile i64 %22, ptr %20, align 8, !tbaa !201
  %23 = load ptr, ptr %4, align 8, !tbaa !20
  %24 = getelementptr inbounds nuw %struct.pmix_list_item_t, ptr %23, i32 0, i32 2
  %25 = load ptr, ptr %24, align 8, !tbaa !202
  ret ptr %25
}

; Function Attrs: nounwind uwtable
define internal i32 @nspace_del(ptr noundef %0) #0 {
  %2 = alloca ptr, align 8
  %3 = alloca ptr, align 8
  %4 = alloca ptr, align 8
  store ptr %0, ptr %2, align 8, !tbaa !33
  call void @llvm.lifetime.start.p0(i64 8, ptr %3) #11
  %5 = load ptr, ptr getelementptr inbounds nuw (%struct.pmix_list_item_t, ptr getelementptr inbounds nuw (%struct.pmix_list_t, ptr getelementptr inbounds nuw (%struct.pmix_gds_hash_component_t, ptr @pmix_mca_gds_hash_component, i32 0, i32 2), i32 0, i32 1), i32 0, i32 1), align 8, !tbaa !175
  store ptr %5, ptr %3, align 8, !tbaa !38
  br label %6

6:                                                ; preds = %43, %1
  %7 = load ptr, ptr %3, align 8, !tbaa !38
  %8 = icmp ne ptr %7, getelementptr inbounds nuw (%struct.pmix_list_t, ptr getelementptr inbounds nuw (%struct.pmix_gds_hash_component_t, ptr @pmix_mca_gds_hash_component, i32 0, i32 2), i32 0, i32 1)
  br i1 %8, label %9, label %47

9:                                                ; preds = %6
  %10 = load ptr, ptr %2, align 8, !tbaa !33
  %11 = load ptr, ptr %3, align 8, !tbaa !38
  %12 = getelementptr inbounds nuw %struct.pmix_job_t, ptr %11, i32 0, i32 1
  %13 = load ptr, ptr %12, align 8, !tbaa !79
  %14 = call i32 @strcmp(ptr noundef %10, ptr noundef %13) #12
  %15 = icmp eq i32 0, %14
  br i1 %15, label %16, label %42

16:                                               ; preds = %9
  %17 = load ptr, ptr %3, align 8, !tbaa !38
  %18 = getelementptr inbounds nuw %struct.pmix_job_t, ptr %17, i32 0, i32 0
  %19 = call ptr @pmix_list_remove_item(ptr noundef getelementptr inbounds nuw (%struct.pmix_gds_hash_component_t, ptr @pmix_mca_gds_hash_component, i32 0, i32 2), ptr noundef %18)
  br label %20

20:                                               ; preds = %16
  call void @llvm.lifetime.start.p0(i64 8, ptr %4) #11
  %21 = load ptr, ptr %3, align 8, !tbaa !38
  store ptr %21, ptr %4, align 8, !tbaa !22
  %22 = load ptr, ptr %4, align 8, !tbaa !22
  %23 = call i32 @pmix_obj_update(ptr noundef %22, i32 noundef -1)
  %24 = icmp eq i32 0, %23
  br i1 %24, label %25, label %39

25:                                               ; preds = %20
  %26 = load ptr, ptr %4, align 8, !tbaa !22
  call void @pmix_obj_run_destructors(ptr noundef %26)
  %27 = load ptr, ptr %4, align 8, !tbaa !22
  %28 = getelementptr inbounds nuw %struct.pmix_object_t, ptr %27, i32 0, i32 3
  %29 = getelementptr inbounds nuw %struct.pmix_tma, ptr %28, i32 0, i32 5
  %30 = load ptr, ptr %29, align 8, !tbaa !24
  %31 = icmp ne ptr null, %30
  br i1 %31, label %32, label %36

32:                                               ; preds = %25
  %33 = load ptr, ptr %4, align 8, !tbaa !22
  %34 = getelementptr inbounds nuw %struct.pmix_object_t, ptr %33, i32 0, i32 3
  %35 = load ptr, ptr %3, align 8, !tbaa !38
  call void @pmix_tma_free(ptr noundef %34, ptr noundef %35)
  br label %38

36:                                               ; preds = %25
  %37 = load ptr, ptr %3, align 8, !tbaa !38
  call void @free(ptr noundef %37) #11
  br label %38

38:                                               ; preds = %36, %32
  store ptr null, ptr %3, align 8, !tbaa !38
  br label %39

39:                                               ; preds = %38, %20
  call void @llvm.lifetime.end.p0(i64 8, ptr %4) #11
  br label %40

40:                                               ; preds = %39
  br label %41

41:                                               ; preds = %40
  br label %47

42:                                               ; preds = %9
  br label %43

43:                                               ; preds = %42
  %44 = load ptr, ptr %3, align 8, !tbaa !38
  %45 = getelementptr inbounds nuw %struct.pmix_list_item_t, ptr %44, i32 0, i32 1
  %46 = load ptr, ptr %45, align 8, !tbaa !98
  store ptr %46, ptr %3, align 8, !tbaa !38
  br label %6, !llvm.loop !178

47:                                               ; preds = %41, %6
  call void @llvm.lifetime.end.p0(i64 8, ptr %3) #11
  ret i32 0
}