; Function Attrs: nounwind uwtable
define internal noundef i32 @nspace_del(ptr noundef readonly captures(none) %0) #0 {
  %.015 = load ptr, ptr getelementptr inbounds nuw (i8, ptr @pmix_mca_gds_hash_component, i64 736), align 8, !tbaa !27
  %.not16 = icmp eq ptr %.015, getelementptr inbounds nuw (i8, ptr @pmix_mca_gds_hash_component, i64 616)
  br i1 %.not16, label %.loopexit, label %.lr.ph

.lr.ph:                                           ; preds = %1, %38
  %.017 = phi ptr [ %7, %38 ], [ %.015, %1 ]
  %2 = getelementptr inbounds nuw i8, ptr %.017, i64 144
  %3 = load ptr, ptr %2, align 8, !tbaa !75
  %4 = tail call i32 @strcmp(ptr noundef nonnull dereferenceable(1) %0, ptr noundef nonnull dereferenceable(1) %3) #19
  %5 = icmp eq i32 %4, 0
  %6 = getelementptr inbounds nuw i8, ptr %.017, i64 120
  %7 = load ptr, ptr %6, align 8, !tbaa !27
  br i1 %5, label %8, label %38

8:                                                ; preds = %.lr.ph
  %9 = getelementptr inbounds nuw i8, ptr %.017, i64 128
  %10 = load ptr, ptr %9, align 8, !tbaa !26
  %11 = getelementptr inbounds nuw i8, ptr %10, i64 120
  store volatile ptr %7, ptr %11, align 8, !tbaa !27
  %12 = getelementptr inbounds nuw i8, ptr %7, i64 128
  store volatile ptr %10, ptr %12, align 8, !tbaa !26
  %13 = load volatile i64, ptr getelementptr inbounds nuw (i8, ptr @pmix_mca_gds_hash_component, i64 760), align 8, !tbaa !21
  %14 = add i64 %13, -1
  store volatile i64 %14, ptr getelementptr inbounds nuw (i8, ptr @pmix_mca_gds_hash_component, i64 760), align 8, !tbaa !21
  %15 = tail call i32 @pthread_mutex_lock(ptr noundef %.017) #15
  %16 = icmp eq i32 %15, 35
  br i1 %16, label %17, label %pmix_obj_update.exit

17:                                               ; preds = %8
  %18 = tail call ptr @__errno_location() #16
  store i32 35, ptr %18, align 4, !tbaa !3
  tail call void @perror(ptr noundef nonnull @.str.13) #17
  tail call void @abort() #18
  unreachable

pmix_obj_update.exit:                             ; preds = %8
  %19 = getelementptr inbounds nuw i8, ptr %.017, i64 48
  %20 = load i32, ptr %19, align 8, !tbaa !16
  %21 = add nsw i32 %20, -1
  store i32 %21, ptr %19, align 8, !tbaa !16
  %22 = tail call i32 @pthread_mutex_unlock(ptr noundef %.017) #15
  %23 = icmp eq i32 %21, 0
  br i1 %23, label %24, label %.loopexit

24:                                               ; preds = %pmix_obj_update.exit
  %25 = getelementptr inbounds nuw i8, ptr %.017, i64 40
  %26 = load ptr, ptr %25, align 8, !tbaa !13
  %27 = getelementptr inbounds nuw i8, ptr %26, i64 48
  %28 = load ptr, ptr %27, align 8, !tbaa !28
  %29 = load ptr, ptr %28, align 8, !tbaa !18
  %.not6.i = icmp eq ptr %29, null
  br i1 %.not6.i, label %pmix_obj_run_destructors.exit, label %.lr.ph.i

.lr.ph.i:                                         ; preds = %24, %.lr.ph.i
  %30 = phi ptr [ %32, %.lr.ph.i ], [ %29, %24 ]
  %.07.i = phi ptr [ %31, %.lr.ph.i ], [ %28, %24 ]
  tail call void %30(ptr noundef %.017) #15
  %31 = getelementptr inbounds nuw i8, ptr %.07.i, i64 8
  %32 = load ptr, ptr %31, align 8, !tbaa !18
  %.not.i = icmp eq ptr %32, null
  br i1 %.not.i, label %pmix_obj_run_destructors.exit, label %.lr.ph.i, !llvm.loop !29

pmix_obj_run_destructors.exit:                    ; preds = %.lr.ph.i, %24
  %33 = getelementptr inbounds nuw i8, ptr %.017, i64 96
  %34 = load ptr, ptr %33, align 8, !tbaa !30
  %.not12 = icmp eq ptr %34, null
  br i1 %.not12, label %37, label %35

35:                                               ; preds = %pmix_obj_run_destructors.exit
  %36 = getelementptr inbounds nuw i8, ptr %.017, i64 56
  tail call void %34(ptr noundef nonnull %36, ptr noundef nonnull %.017) #15
  br label %.loopexit

37:                                               ; preds = %pmix_obj_run_destructors.exit
  tail call void @free(ptr noundef nonnull %.017) #15
  br label %.loopexit

38:                                               ; preds = %.lr.ph
  %.not = icmp eq ptr %7, getelementptr inbounds nuw (i8, ptr @pmix_mca_gds_hash_component, i64 616)
  br i1 %.not, label %.loopexit, label %.lr.ph, !llvm.loop !185

.loopexit:                                        ; preds = %38, %1, %pmix_obj_update.exit, %37, %35
  ret i32 0
}